; Function Attrs: mustprogress uwtable
define hidden void @_ZN4cvc58internal6theory11quantifiers7fmcheck18FirstOrderModelFmc17processInitializeEb(ptr noundef nonnull readonly align 8 dereferenceable(752) %this, i1 noundef zeroext %ispre) unnamed_addr #3 align 2 {
entry:
  br i1 %ispre, label %if.end, label %for.end

if.end:                                           ; preds = %entry
  %_M_left.i.i = getelementptr inbounds i8, ptr %this, i64 680
  %0 = load ptr, ptr %_M_left.i.i, align 8
  %add.ptr.i.i = getelementptr inbounds i8, ptr %this, i64 664
  %cmp.i.not4 = icmp eq ptr %0, %add.ptr.i.i
  br i1 %cmp.i.not4, label %for.end, label %for.body

for.body:                                         ; preds = %if.end, %for.body
  %__begin3.sroa.0.05 = phi ptr [ %call.i, %for.body ], [ %0, %if.end ]
  %second = getelementptr inbounds i8, ptr %__begin3.sroa.0.05, i64 40
  %1 = load ptr, ptr %second, align 8
  tail call void @_ZN4cvc58internal6theory11quantifiers7fmcheck3Def5resetEv(ptr noundef nonnull align 8 dereferenceable(137) %1)
  %call.i = tail call noundef ptr @_ZSt18_Rb_tree_incrementPSt18_Rb_tree_node_base(ptr noundef %__begin3.sroa.0.05) #20
  %cmp.i.not = icmp eq ptr %call.i, %add.ptr.i.i
  br i1 %cmp.i.not, label %for.end, label %for.body

for.end:                                          ; preds = %for.body, %if.end, %entry
  ret void
}